target datalayout = "e-m:e-p270:32:32-p271:32:32-p272:64:64-i64:64-i128:128-f80:128-n8:16:32:64-S128"
target triple = "x86_64-pc-linux-gnu"

%struct.cli_shell_callbacks_t = type { ptr, ptr, ptr }
%struct.php_file_globals = type { i32, i64, i8, i64, ptr, ptr, ptr, ptr, ptr, ptr, ptr, i32, %struct.hostent, ptr, i64 }
%struct.hostent = type { ptr, ptr, i32, i32, ptr }
%struct.fd_set = type { [16 x i64] }
%struct.timeval = type { i64, i64 }

@cli_shell_callbacks = hidden global %struct.cli_shell_callbacks_t zeroinitializer, align 8
@file_globals = external global %struct.php_file_globals, align 8

; Function Attrs: nounwind uwtable
define internal zeroext i1 @sapi_cli_select(i32 noundef %0) #0 {
  %2 = alloca i32, align 4
  %3 = alloca %struct.fd_set, align 8
  %4 = alloca %struct.timeval, align 8
  %5 = alloca i32, align 4
  %6 = alloca i32, align 4
  %7 = alloca ptr, align 8
  store i32 %0, ptr %2, align 4
  br label %8

8:                                                ; preds = %1
  store ptr %3, ptr %7, align 8
  store i32 0, ptr %6, align 4
  br label %9

9:                                                ; preds = %19, %8
  %10 = load i32, ptr %6, align 4
  %11 = zext i32 %10 to i64
  %12 = icmp ult i64 %11, 16
  br i1 %12, label %13, label %22

13:                                               ; preds = %9
  %14 = load ptr, ptr %7, align 8
  %15 = getelementptr inbounds %struct.fd_set, ptr %14, i32 0, i32 0
  %16 = load i32, ptr %6, align 4
  %17 = zext i32 %16 to i64
  %18 = getelementptr inbounds [16 x i64], ptr %15, i64 0, i64 %17
  store i64 0, ptr %18, align 8
  br label %19

19:                                               ; preds = %13
  %20 = load i32, ptr %6, align 4
  %21 = add i32 %20, 1
  store i32 %21, ptr %6, align 4
  br label %9

22:                                               ; preds = %9
  br label %23

23:                                               ; preds = %22
  br label %24

24:                                               ; preds = %23
  %25 = load i32, ptr %2, align 4
  %26 = icmp slt i32 %25, 1024
  br i1 %26, label %27, label %39

27:                                               ; preds = %24
  %28 = load i32, ptr %2, align 4
  %29 = srem i32 %28, 64
  %30 = zext i32 %29 to i64
  %31 = shl i64 1, %30
  %32 = getelementptr inbounds %struct.fd_set, ptr %3, i32 0, i32 0
  %33 = load i32, ptr %2, align 4
  %34 = sdiv i32 %33, 64
  %35 = sext i32 %34 to i64
  %36 = getelementptr inbounds [16 x i64], ptr %32, i64 0, i64 %35
  %37 = load i64, ptr %36, align 8
  %38 = or i64 %37, %31
  store i64 %38, ptr %36, align 8
  br label %39

39:                                               ; preds = %27, %24
  br label %40

40:                                               ; preds = %39
  %41 = load i64, ptr getelementptr inbounds (%struct.php_file_globals, ptr @file_globals, i32 0, i32 3), align 8
  %42 = getelementptr inbounds %struct.timeval, ptr %4, i32 0, i32 0
  store i64 %41, ptr %42, align 8
  %43 = getelementptr inbounds %struct.timeval, ptr %4, i32 0, i32 1
  store i64 0, ptr %43, align 8
  %44 = load i32, ptr %2, align 4
  %45 = add nsw i32 %44, 1
  %46 = call i32 @select(i32 noundef %45, ptr noundef null, ptr noundef %3, ptr noundef null, ptr noundef %4)
  store i32 %46, ptr %5, align 4
  %47 = load i32, ptr %5, align 4
  %48 = icmp ne i32 %47, -1
  ret i1 %48
}

; Function Attrs: nounwind uwtable
define i64 @sapi_cli_single_write(ptr noundef %0, i64 noundef %1) #0 {
  %3 = alloca ptr, align 8
  %4 = alloca i64, align 8
  %5 = alloca i64, align 8
  store ptr %0, ptr %3, align 8
  store i64 %1, ptr %4, align 8
  %6 = load ptr, ptr @cli_shell_callbacks, align 8
  %7 = icmp ne ptr %6, null
  br i1 %7, label %8, label %13

8:                                                ; preds = %2
  %9 = load ptr, ptr @cli_shell_callbacks, align 8
  %10 = load ptr, ptr %3, align 8
  %11 = load i64, ptr %4, align 8
  %12 = call i64 %9(ptr noundef %10, i64 noundef %11)
  br label %13

13:                                               ; preds = %8, %2
  br label %14

14:                                               ; preds = %35, %13
  %15 = load ptr, ptr %3, align 8
  %16 = load i64, ptr %4, align 8
  %17 = call i64 @write(i32 noundef 1, ptr noundef %15, i64 noundef %16)
  store i64 %17, ptr %5, align 8
  br label %18

18:                                               ; preds = %14
  %19 = load i64, ptr %5, align 8
  %20 = icmp sle i64 %19, 0
  br i1 %20, label %21, label %35

21:                                               ; preds = %18
  %22 = call ptr @__errno_location() #12
  %23 = load i32, ptr %22, align 4
  %24 = icmp eq i32 %23, 4
  br i1 %24, label %33, label %25

25:                                               ; preds = %21
  %26 = call ptr @__errno_location() #12
  %27 = load i32, ptr %26, align 4
  %28 = icmp eq i32 %27, 11
  br i1 %28, label %29, label %31

29:                                               ; preds = %25
  %30 = call zeroext i1 @sapi_cli_select(i32 noundef 1)
  br label %31

31:                                               ; preds = %29, %25
  %32 = phi i1 [ false, %25 ], [ %30, %29 ]
  br label %33

33:                                               ; preds = %31, %21
  %34 = phi i1 [ true, %21 ], [ %32, %31 ]
  br label %35

35:                                               ; preds = %33, %18
  %36 = phi i1 [ false, %18 ], [ %34, %33 ]
  br i1 %36, label %14, label %37

37:                                               ; preds = %35
  %38 = load i64, ptr %5, align 8
  ret i64 %38
}