; Function Attrs: nounwind uwtable
define noundef i64 @sapi_cli_single_write(ptr noundef %0, i64 noundef %1) local_unnamed_addr #1 {
  %3 = alloca %struct.fd_set, align 8
  %4 = alloca %struct.timeval, align 8
  %5 = load ptr, ptr @cli_shell_callbacks, align 8
  %.not = icmp eq ptr %5, null
  br i1 %.not, label %8, label %6

6:                                                ; preds = %2
  %7 = tail call i64 %5(ptr noundef %0, i64 noundef %1) #23
  br label %8

8:                                                ; preds = %6, %2
  %9 = tail call i64 @write(i32 noundef 1, ptr noundef %0, i64 noundef %1) #23
  %10 = icmp slt i64 %9, 1
  br i1 %10, label %.lr.ph, label %.critedge

.lr.ph:                                           ; preds = %8
  %11 = tail call ptr @__errno_location() #24
  %12 = getelementptr inbounds i8, ptr %3, i64 8
  %13 = getelementptr inbounds i8, ptr %4, i64 8
  br label %14

14:                                               ; preds = %.lr.ph, %.critedge2.backedge
  %15 = phi i64 [ %9, %.lr.ph ], [ %20, %.critedge2.backedge ]
  %16 = load i32, ptr %11, align 4
  switch i32 %16, label %.critedge [
    i32 4, label %.critedge2.backedge
    i32 11, label %17
  ]

17:                                               ; preds = %14
  call void @llvm.lifetime.start.p0(i64 128, ptr nonnull %3)
  call void @llvm.lifetime.start.p0(i64 16, ptr nonnull %4)
  call void @llvm.memset.p0.i64(ptr noundef nonnull align 8 dereferenceable(128) %12, i8 0, i64 120, i1 false)
  store i64 2, ptr %3, align 8
  %18 = load i64, ptr getelementptr inbounds (%struct.php_file_globals, ptr @file_globals, i64 0, i32 3), align 8
  store i64 %18, ptr %4, align 8
  store i64 0, ptr %13, align 8
  %19 = call i32 @select(i32 noundef 2, ptr noundef null, ptr noundef nonnull %3, ptr noundef null, ptr noundef nonnull %4) #23
  %.not8 = icmp eq i32 %19, -1
  call void @llvm.lifetime.end.p0(i64 128, ptr nonnull %3)
  call void @llvm.lifetime.end.p0(i64 16, ptr nonnull %4)
  br i1 %.not8, label %.critedge, label %.critedge2.backedge

.critedge2.backedge:                              ; preds = %17, %14
  %20 = call i64 @write(i32 noundef 1, ptr noundef %0, i64 noundef %1) #23
  %21 = icmp slt i64 %20, 1
  br i1 %21, label %14, label %.critedge

.critedge:                                        ; preds = %17, %.critedge2.backedge, %14, %8
  %.lcssa = phi i64 [ %9, %8 ], [ %15, %14 ], [ %20, %.critedge2.backedge ], [ %15, %17 ]
  ret i64 %.lcssa
}